; Function Attrs: nofree nosync nounwind memory(readwrite, inaccessiblemem: none) uwtable
define void @Abc_NtkBalanceLevel(ptr noundef readonly captures(none) %0) local_unnamed_addr #5 {
  %2 = getelementptr inbounds nuw i8, ptr %0, i64 32
  %3 = load ptr, ptr %2, align 8, !tbaa !3
  %4 = getelementptr i8, ptr %3, i64 4
  %.val20 = load i32, ptr %4, align 4, !tbaa !24
  %5 = icmp sgt i32 %.val20, 0
  br i1 %5, label %.lr.ph, label %.critedge.preheader

.critedge.preheader:                              ; preds = %18, %1
  %6 = getelementptr i8, ptr %0, i64 64
  %.val1522 = load ptr, ptr %6, align 8, !tbaa !43
  %7 = getelementptr i8, ptr %.val1522, i64 4
  %.val15.val23 = load i32, ptr %7, align 4, !tbaa !24
  %8 = icmp sgt i32 %.val15.val23, 0
  br i1 %8, label %.critedge, label %.critedge2

.lr.ph:                                           ; preds = %1, %18
  %9 = phi ptr [ %19, %18 ], [ %3, %1 ]
  %indvars.iv = phi i64 [ %indvars.iv.next, %18 ], [ 0, %1 ]
  %10 = getelementptr i8, ptr %9, i64 8
  %.val19.val = load ptr, ptr %10, align 8, !tbaa !26
  %11 = getelementptr inbounds nuw ptr, ptr %.val19.val, i64 %indvars.iv
  %12 = load ptr, ptr %11, align 8, !tbaa !27
  %13 = icmp eq ptr %12, null
  br i1 %13, label %18, label %14

14:                                               ; preds = %.lr.ph
  %15 = getelementptr inbounds nuw i8, ptr %12, i64 20
  %16 = load i32, ptr %15, align 4
  %17 = and i32 %16, 4095
  store i32 %17, ptr %15, align 4
  %.pre = load ptr, ptr %2, align 8, !tbaa !3
  br label %18

18:                                               ; preds = %14, %.lr.ph
  %19 = phi ptr [ %.pre, %14 ], [ %9, %.lr.ph ]
  %indvars.iv.next = add nuw nsw i64 %indvars.iv, 1
  %20 = getelementptr i8, ptr %19, i64 4
  %.val = load i32, ptr %20, align 4, !tbaa !24
  %21 = sext i32 %.val to i64
  %22 = icmp slt i64 %indvars.iv.next, %21
  br i1 %22, label %.lr.ph, label %.critedge.preheader, !llvm.loop !67

.critedge:                                        ; preds = %.critedge.preheader, %.critedge
  %indvars.iv29 = phi i64 [ %indvars.iv.next30, %.critedge ], [ 0, %.critedge.preheader ]
  %.val1525 = phi ptr [ %.val15, %.critedge ], [ %.val1522, %.critedge.preheader ]
  %23 = getelementptr i8, ptr %.val1525, i64 8
  %.val16.val = load ptr, ptr %23, align 8, !tbaa !26
  %24 = getelementptr inbounds nuw ptr, ptr %.val16.val, i64 %indvars.iv29
  %25 = load ptr, ptr %24, align 8, !tbaa !27
  %.val17 = load ptr, ptr %25, align 8, !tbaa !45
  %26 = getelementptr i8, ptr %25, i64 32
  %.val18 = load ptr, ptr %26, align 8, !tbaa !48
  %27 = getelementptr i8, ptr %.val17, i64 32
  %.val17.val = load ptr, ptr %27, align 8, !tbaa !3
  %.val18.val = load i32, ptr %.val18, align 4, !tbaa !30
  %28 = getelementptr i8, ptr %.val17.val, i64 8
  %.val17.val.val = load ptr, ptr %28, align 8, !tbaa !26
  %29 = sext i32 %.val18.val to i64
  %30 = getelementptr inbounds ptr, ptr %.val17.val.val, i64 %29
  %31 = load ptr, ptr %30, align 8, !tbaa !27
  %32 = tail call i32 @Abc_NtkBalanceLevel_rec(ptr noundef %31)
  %indvars.iv.next30 = add nuw nsw i64 %indvars.iv29, 1
  %.val15 = load ptr, ptr %6, align 8, !tbaa !43
  %33 = getelementptr i8, ptr %.val15, i64 4
  %.val15.val = load i32, ptr %33, align 4, !tbaa !24
  %34 = sext i32 %.val15.val to i64
  %35 = icmp slt i64 %indvars.iv.next30, %34
  br i1 %35, label %.critedge, label %.critedge2, !llvm.loop !68

.critedge2:                                       ; preds = %.critedge, %.critedge.preheader
  ret void
}